target datalayout = "e-m:e-p270:32:32-p271:32:32-p272:64:64-i64:64-i128:128-f80:128-n8:16:32:64-S128"
target triple = "x86_64-pc-linux-gnu"

@add_unknown_frame_cb.done = internal global i64 0, align 8
@__const.add_unknown_frame_cb.unknown_frame = private unnamed_addr constant [8 x i8] c"\FF\FF\FF\FF\FF\FF\FF\FF", align 1

; Function Attrs: nounwind uwtable
define internal i32 @add_unknown_frame_cb(ptr noundef %0, ptr noundef %1, ptr noundef %2, i64 noundef %3, ptr noundef %4) #0 {
  %6 = alloca i32, align 4
  %7 = alloca ptr, align 8
  %8 = alloca ptr, align 8
  %9 = alloca ptr, align 8
  %10 = alloca i64, align 8
  %11 = alloca ptr, align 8
  %12 = alloca [8 x i8], align 1
  %13 = alloca i32, align 4
  store ptr %0, ptr %7, align 8, !tbaa !19
  store ptr %1, ptr %8, align 8, !tbaa !21
  store ptr %2, ptr %9, align 8, !tbaa !4
  store i64 %3, ptr %10, align 8, !tbaa !17
  store ptr %4, ptr %11, align 8, !tbaa !23
  call void @llvm.lifetime.start.p0(i64 8, ptr %12) #6
  call void @llvm.memcpy.p0.p0.i64(ptr align 1 %12, ptr align 1 @__const.add_unknown_frame_cb.unknown_frame, i64 8, i1 false)
  %14 = load i64, ptr @add_unknown_frame_cb.done, align 8, !tbaa !17
  %15 = add i64 %14, 1
  store i64 %15, ptr @add_unknown_frame_cb.done, align 8, !tbaa !17
  %16 = icmp ne i64 %14, 0
  br i1 %16, label %17, label %18

17:                                               ; preds = %5
  store i32 1, ptr %6, align 4
  store i32 1, ptr %13, align 4
  br label %22

18:                                               ; preds = %5
  %19 = load ptr, ptr %7, align 8, !tbaa !19
  %20 = getelementptr inbounds [8 x i8], ptr %12, i64 0, i64 0
  %21 = call i32 @qtest_fault_prepend_frame(ptr noundef %19, ptr noundef %20, i64 noundef 8)
  store i32 %21, ptr %6, align 4
  store i32 1, ptr %13, align 4
  br label %22

22:                                               ; preds = %18, %17
  call void @llvm.lifetime.end.p0(i64 8, ptr %12) #6
  %23 = load i32, ptr %6, align 4
  ret i32 %23
}