; Function Attrs: nounwind uwtable
define internal i32 @add_unknown_frame_cb(ptr noundef %0, ptr readnone captures(none) %1, ptr readnone captures(none) %2, i64 %3, ptr readnone captures(none) %4) #1 {
  %6 = alloca [8 x i8], align 8
  call void @llvm.lifetime.start.p0(i64 8, ptr nonnull %6) #4
  store i64 -1, ptr %6, align 8
  %7 = load i64, ptr @add_unknown_frame_cb.done, align 8, !tbaa !13
  %8 = add i64 %7, 1
  store i64 %8, ptr @add_unknown_frame_cb.done, align 8, !tbaa !13
  %.not = icmp eq i64 %7, 0
  br i1 %.not, label %9, label %11

9:                                                ; preds = %5
  %10 = call i32 @qtest_fault_prepend_frame(ptr noundef %0, ptr noundef nonnull %6, i64 noundef 8) #4
  br label %11

11:                                               ; preds = %5, %9
  %.0 = phi i32 [ %10, %9 ], [ 1, %5 ]
  call void @llvm.lifetime.end.p0(i64 8, ptr nonnull %6) #4
  ret i32 %.0
}